target datalayout = "e-m:e-p270:32:32-p271:32:32-p272:64:64-i64:64-i128:128-f80:128-n8:16:32:64-S128"
target triple = "x86_64-pc-linux-gnu"

%struct.TupleTableSlotOps = type { i64, ptr, ptr, ptr, ptr, ptr, ptr, ptr, ptr, ptr, ptr, ptr, ptr }
%struct.MergeAppendState = type { %struct.PlanState, ptr, i32, i32, ptr, ptr, ptr, i8, ptr, ptr }
%struct.PlanState = type { i32, ptr, ptr, ptr, ptr, ptr, ptr, ptr, ptr, ptr, ptr, ptr, ptr, ptr, ptr, ptr, ptr, ptr, i8, ptr, ptr, ptr, ptr, ptr, i8, i8, i8, i8, i8, i8, i8, i8 }
%struct.TupleTableSlot = type { i32, i16, i16, ptr, ptr, ptr, ptr, ptr, %struct.ItemPointerData, i32 }
%struct.ItemPointerData = type { %struct.BlockIdData, i16 }
%struct.BlockIdData = type { i16, i16 }
%struct.binaryheap = type { i32, i32, i8, ptr, ptr, [0 x i64] }

@InterruptPending = external global i32, align 4

; Function Attrs: inlinehint nounwind uwtable
define internal i32 @DatumGetInt32(i64 noundef %0) #2 {
  %2 = alloca i64, align 8
  store i64 %0, ptr %2, align 8
  %3 = load i64, ptr %2, align 8
  %4 = trunc i64 %3 to i32
  ret i32 %4
}

; Function Attrs: inlinehint nounwind uwtable
define internal i64 @Int32GetDatum(i32 noundef %0) #2 {
  %2 = alloca i32, align 4
  store i32 %0, ptr %2, align 4
  %3 = load i32, ptr %2, align 4
  %4 = sext i32 %3 to i64
  ret i64 %4
}

; Function Attrs: inlinehint nounwind uwtable
define internal ptr @ExecProcNode(ptr noundef %0) #2 {
  %2 = alloca ptr, align 8
  store ptr %0, ptr %2, align 8
  %3 = load ptr, ptr %2, align 8
  %4 = getelementptr inbounds nuw %struct.PlanState, ptr %3, i32 0, i32 13
  %5 = load ptr, ptr %4, align 8
  %6 = icmp ne ptr %5, null
  br i1 %6, label %7, label %9

7:                                                ; preds = %1
  %8 = load ptr, ptr %2, align 8
  call void @ExecReScan(ptr noundef %8)
  br label %9

9:                                                ; preds = %7, %1
  %10 = load ptr, ptr %2, align 8
  %11 = getelementptr inbounds nuw %struct.PlanState, ptr %10, i32 0, i32 3
  %12 = load ptr, ptr %11, align 8
  %13 = load ptr, ptr %2, align 8
  %14 = call ptr %12(ptr noundef %13)
  ret ptr %14
}

; Function Attrs: inlinehint nounwind uwtable
define internal ptr @ExecClearTuple(ptr noundef %0) #2 {
  %2 = alloca ptr, align 8
  store ptr %0, ptr %2, align 8
  %3 = load ptr, ptr %2, align 8
  %4 = getelementptr inbounds nuw %struct.TupleTableSlot, ptr %3, i32 0, i32 3
  %5 = load ptr, ptr %4, align 8
  %6 = getelementptr inbounds nuw %struct.TupleTableSlotOps, ptr %5, i32 0, i32 3
  %7 = load ptr, ptr %6, align 8
  %8 = load ptr, ptr %2, align 8
  call void %7(ptr noundef %8)
  %9 = load ptr, ptr %2, align 8
  ret ptr %9
}

; Function Attrs: nounwind uwtable
define internal ptr @ExecMergeAppend(ptr noundef %0) #0 {
  %2 = alloca ptr, align 8
  %3 = alloca ptr, align 8
  %4 = alloca ptr, align 8
  %5 = alloca ptr, align 8
  %6 = alloca i32, align 4
  %7 = alloca i32, align 4
  store ptr %0, ptr %3, align 8
  call void @llvm.lifetime.start.p0(i64 8, ptr %4) #5
  %8 = load ptr, ptr %3, align 8
  store ptr %8, ptr %4, align 8
  call void @llvm.lifetime.start.p0(i64 8, ptr %5) #5
  call void @llvm.lifetime.start.p0(i64 4, ptr %6) #5
  br label %9

9:                                                ; preds = %1
  %10 = load volatile i32, ptr @InterruptPending, align 4
  %11 = icmp ne i32 %10, 0
  %12 = zext i1 %11 to i32
  %13 = sext i32 %12 to i64
  %14 = call i64 @llvm.expect.i64(i64 %13, i64 0)
  %15 = icmp ne i64 %14, 0
  br i1 %15, label %16, label %17

16:                                               ; preds = %9
  call void @ProcessInterrupts()
  br label %17

17:                                               ; preds = %16, %9
  br label %18

18:                                               ; preds = %17
  br label %19

19:                                               ; preds = %18
  %20 = load ptr, ptr %4, align 8
  %21 = getelementptr inbounds nuw %struct.MergeAppendState, ptr %20, i32 0, i32 7
  %22 = load i8, ptr %21, align 8, !range !4, !noundef !5
  %23 = trunc i8 %22 to i1
  br i1 %23, label %104, label %24

24:                                               ; preds = %19
  %25 = load ptr, ptr %4, align 8
  %26 = getelementptr inbounds nuw %struct.MergeAppendState, ptr %25, i32 0, i32 2
  %27 = load i32, ptr %26, align 8
  %28 = icmp eq i32 %27, 0
  br i1 %28, label %29, label %35

29:                                               ; preds = %24
  %30 = load ptr, ptr %4, align 8
  %31 = getelementptr inbounds nuw %struct.MergeAppendState, ptr %30, i32 0, i32 0
  %32 = getelementptr inbounds nuw %struct.PlanState, ptr %31, i32 0, i32 15
  %33 = load ptr, ptr %32, align 8
  %34 = call ptr @ExecClearTuple(ptr noundef %33)
  store ptr %34, ptr %2, align 8
  store i32 1, ptr %7, align 4
  br label %185

35:                                               ; preds = %24
  %36 = load ptr, ptr %4, align 8
  %37 = getelementptr inbounds nuw %struct.MergeAppendState, ptr %36, i32 0, i32 9
  %38 = load ptr, ptr %37, align 8
  %39 = icmp eq ptr %38, null
  br i1 %39, label %40, label %47

40:                                               ; preds = %35
  %41 = load ptr, ptr %4, align 8
  %42 = getelementptr inbounds nuw %struct.MergeAppendState, ptr %41, i32 0, i32 8
  %43 = load ptr, ptr %42, align 8
  %44 = call ptr @ExecFindMatchingSubPlans(ptr noundef %43, i1 noundef zeroext false, ptr noundef null)
  %45 = load ptr, ptr %4, align 8
  %46 = getelementptr inbounds nuw %struct.MergeAppendState, ptr %45, i32 0, i32 9
  store ptr %44, ptr %46, align 8
  br label %47

47:                                               ; preds = %40, %35
  store i32 -1, ptr %6, align 4
  br label %48

48:                                               ; preds = %97, %47
  %49 = load ptr, ptr %4, align 8
  %50 = getelementptr inbounds nuw %struct.MergeAppendState, ptr %49, i32 0, i32 9
  %51 = load ptr, ptr %50, align 8
  %52 = load i32, ptr %6, align 4
  %53 = call i32 @bms_next_member(ptr noundef %51, i32 noundef %52)
  store i32 %53, ptr %6, align 4
  %54 = icmp sge i32 %53, 0
  br i1 %54, label %55, label %98

55:                                               ; preds = %48
  %56 = load ptr, ptr %4, align 8
  %57 = getelementptr inbounds nuw %struct.MergeAppendState, ptr %56, i32 0, i32 1
  %58 = load ptr, ptr %57, align 8
  %59 = load i32, ptr %6, align 4
  %60 = sext i32 %59 to i64
  %61 = getelementptr inbounds ptr, ptr %58, i64 %60
  %62 = load ptr, ptr %61, align 8
  %63 = call ptr @ExecProcNode(ptr noundef %62)
  %64 = load ptr, ptr %4, align 8
  %65 = getelementptr inbounds nuw %struct.MergeAppendState, ptr %64, i32 0, i32 5
  %66 = load ptr, ptr %65, align 8
  %67 = load i32, ptr %6, align 4
  %68 = sext i32 %67 to i64
  %69 = getelementptr inbounds ptr, ptr %66, i64 %68
  store ptr %63, ptr %69, align 8
  %70 = load ptr, ptr %4, align 8
  %71 = getelementptr inbounds nuw %struct.MergeAppendState, ptr %70, i32 0, i32 5
  %72 = load ptr, ptr %71, align 8
  %73 = load i32, ptr %6, align 4
  %74 = sext i32 %73 to i64
  %75 = getelementptr inbounds ptr, ptr %72, i64 %74
  %76 = load ptr, ptr %75, align 8
  %77 = icmp eq ptr %76, null
  br i1 %77, label %97, label %78

78:                                               ; preds = %55
  %79 = load ptr, ptr %4, align 8
  %80 = getelementptr inbounds nuw %struct.MergeAppendState, ptr %79, i32 0, i32 5
  %81 = load ptr, ptr %80, align 8
  %82 = load i32, ptr %6, align 4
  %83 = sext i32 %82 to i64
  %84 = getelementptr inbounds ptr, ptr %81, i64 %83
  %85 = load ptr, ptr %84, align 8
  %86 = getelementptr inbounds nuw %struct.TupleTableSlot, ptr %85, i32 0, i32 1
  %87 = load i16, ptr %86, align 4
  %88 = zext i16 %87 to i32
  %89 = and i32 %88, 2
  %90 = icmp ne i32 %89, 0
  br i1 %90, label %97, label %91

91:                                               ; preds = %78
  %92 = load ptr, ptr %4, align 8
  %93 = getelementptr inbounds nuw %struct.MergeAppendState, ptr %92, i32 0, i32 6
  %94 = load ptr, ptr %93, align 8
  %95 = load i32, ptr %6, align 4
  %96 = call i64 @Int32GetDatum(i32 noundef %95)
  call void @binaryheap_add_unordered(ptr noundef %94, i64 noundef %96)
  br label %97

97:                                               ; preds = %91, %78, %55
  br label %48, !llvm.loop !9

98:                                               ; preds = %48
  %99 = load ptr, ptr %4, align 8
  %100 = getelementptr inbounds nuw %struct.MergeAppendState, ptr %99, i32 0, i32 6
  %101 = load ptr, ptr %100, align 8
  call void @binaryheap_build(ptr noundef %101)
  %102 = load ptr, ptr %4, align 8
  %103 = getelementptr inbounds nuw %struct.MergeAppendState, ptr %102, i32 0, i32 7
  store i8 1, ptr %103, align 8
  br label %157

104:                                              ; preds = %19
  %105 = load ptr, ptr %4, align 8
  %106 = getelementptr inbounds nuw %struct.MergeAppendState, ptr %105, i32 0, i32 6
  %107 = load ptr, ptr %106, align 8
  %108 = call i64 @binaryheap_first(ptr noundef %107)
  %109 = call i32 @DatumGetInt32(i64 noundef %108)
  store i32 %109, ptr %6, align 4
  %110 = load ptr, ptr %4, align 8
  %111 = getelementptr inbounds nuw %struct.MergeAppendState, ptr %110, i32 0, i32 1
  %112 = load ptr, ptr %111, align 8
  %113 = load i32, ptr %6, align 4
  %114 = sext i32 %113 to i64
  %115 = getelementptr inbounds ptr, ptr %112, i64 %114
  %116 = load ptr, ptr %115, align 8
  %117 = call ptr @ExecProcNode(ptr noundef %116)
  %118 = load ptr, ptr %4, align 8
  %119 = getelementptr inbounds nuw %struct.MergeAppendState, ptr %118, i32 0, i32 5
  %120 = load ptr, ptr %119, align 8
  %121 = load i32, ptr %6, align 4
  %122 = sext i32 %121 to i64
  %123 = getelementptr inbounds ptr, ptr %120, i64 %122
  store ptr %117, ptr %123, align 8
  %124 = load ptr, ptr %4, align 8
  %125 = getelementptr inbounds nuw %struct.MergeAppendState, ptr %124, i32 0, i32 5
  %126 = load ptr, ptr %125, align 8
  %127 = load i32, ptr %6, align 4
  %128 = sext i32 %127 to i64
  %129 = getelementptr inbounds ptr, ptr %126, i64 %128
  %130 = load ptr, ptr %129, align 8
  %131 = icmp eq ptr %130, null
  br i1 %131, label %151, label %132

132:                                              ; preds = %104
  %133 = load ptr, ptr %4, align 8
  %134 = getelementptr inbounds nuw %struct.MergeAppendState, ptr %133, i32 0, i32 5
  %135 = load ptr, ptr %134, align 8
  %136 = load i32, ptr %6, align 4
  %137 = sext i32 %136 to i64
  %138 = getelementptr inbounds ptr, ptr %135, i64 %137
  %139 = load ptr, ptr %138, align 8
  %140 = getelementptr inbounds nuw %struct.TupleTableSlot, ptr %139, i32 0, i32 1
  %141 = load i16, ptr %140, align 4
  %142 = zext i16 %141 to i32
  %143 = and i32 %142, 2
  %144 = icmp ne i32 %143, 0
  br i1 %144, label %151, label %145

145:                                              ; preds = %132
  %146 = load ptr, ptr %4, align 8
  %147 = getelementptr inbounds nuw %struct.MergeAppendState, ptr %146, i32 0, i32 6
  %148 = load ptr, ptr %147, align 8
  %149 = load i32, ptr %6, align 4
  %150 = call i64 @Int32GetDatum(i32 noundef %149)
  call void @binaryheap_replace_first(ptr noundef %148, i64 noundef %150)
  br label %156

151:                                              ; preds = %132, %104
  %152 = load ptr, ptr %4, align 8
  %153 = getelementptr inbounds nuw %struct.MergeAppendState, ptr %152, i32 0, i32 6
  %154 = load ptr, ptr %153, align 8
  %155 = call i64 @binaryheap_remove_first(ptr noundef %154)
  br label %156

156:                                              ; preds = %151, %145
  br label %157

157:                                              ; preds = %156, %98
  %158 = load ptr, ptr %4, align 8
  %159 = getelementptr inbounds nuw %struct.MergeAppendState, ptr %158, i32 0, i32 6
  %160 = load ptr, ptr %159, align 8
  %161 = getelementptr inbounds nuw %struct.binaryheap, ptr %160, i32 0, i32 0
  %162 = load i32, ptr %161, align 8
  %163 = icmp eq i32 %162, 0
  br i1 %163, label %164, label %170

164:                                              ; preds = %157
  %165 = load ptr, ptr %4, align 8
  %166 = getelementptr inbounds nuw %struct.MergeAppendState, ptr %165, i32 0, i32 0
  %167 = getelementptr inbounds nuw %struct.PlanState, ptr %166, i32 0, i32 15
  %168 = load ptr, ptr %167, align 8
  %169 = call ptr @ExecClearTuple(ptr noundef %168)
  store ptr %169, ptr %5, align 8
  br label %183

170:                                              ; preds = %157
  %171 = load ptr, ptr %4, align 8
  %172 = getelementptr inbounds nuw %struct.MergeAppendState, ptr %171, i32 0, i32 6
  %173 = load ptr, ptr %172, align 8
  %174 = call i64 @binaryheap_first(ptr noundef %173)
  %175 = call i32 @DatumGetInt32(i64 noundef %174)
  store i32 %175, ptr %6, align 4
  %176 = load ptr, ptr %4, align 8
  %177 = getelementptr inbounds nuw %struct.MergeAppendState, ptr %176, i32 0, i32 5
  %178 = load ptr, ptr %177, align 8
  %179 = load i32, ptr %6, align 4
  %180 = sext i32 %179 to i64
  %181 = getelementptr inbounds ptr, ptr %178, i64 %180
  %182 = load ptr, ptr %181, align 8
  store ptr %182, ptr %5, align 8
  br label %183

183:                                              ; preds = %170, %164
  %184 = load ptr, ptr %5, align 8
  store ptr %184, ptr %2, align 8
  store i32 1, ptr %7, align 4
  br label %185

185:                                              ; preds = %183, %29
  call void @llvm.lifetime.end.p0(i64 4, ptr %6) #5
  call void @llvm.lifetime.end.p0(i64 8, ptr %5) #5
  call void @llvm.lifetime.end.p0(i64 8, ptr %4) #5
  %186 = load ptr, ptr %2, align 8
  ret ptr %186
}