; Function Attrs: nounwind uwtable
define internal ptr @ExecMergeAppend(ptr noundef captures(none) %0) #0 {
  %2 = load volatile i32, ptr @InterruptPending, align 4
  %.not = icmp eq i32 %2, 0
  br i1 %.not, label %4, label %3, !prof !9

3:                                                ; preds = %1
  tail call void @ProcessInterrupts() #3
  br label %4

4:                                                ; preds = %3, %1
  %5 = getelementptr inbounds nuw i8, ptr %0, i64 240
  %6 = load i8, ptr %5, align 8, !range !4, !noundef !5
  %7 = trunc nuw i8 %6 to i1
  br i1 %7, label %64, label %8

8:                                                ; preds = %4
  %9 = getelementptr inbounds nuw i8, ptr %0, i64 208
  %10 = load i32, ptr %9, align 8
  %11 = icmp eq i32 %10, 0
  br i1 %11, label %12, label %19

12:                                               ; preds = %8
  %13 = getelementptr inbounds nuw i8, ptr %0, i64 120
  %14 = load ptr, ptr %13, align 8
  %15 = getelementptr inbounds nuw i8, ptr %14, i64 8
  %16 = load ptr, ptr %15, align 8
  %17 = getelementptr inbounds nuw i8, ptr %16, i64 24
  %18 = load ptr, ptr %17, align 8
  tail call void %18(ptr noundef %14) #3
  br label %114

19:                                               ; preds = %8
  %20 = getelementptr inbounds nuw i8, ptr %0, i64 256
  %21 = load ptr, ptr %20, align 8
  %22 = icmp eq ptr %21, null
  br i1 %22, label %23, label %27

23:                                               ; preds = %19
  %24 = getelementptr inbounds nuw i8, ptr %0, i64 248
  %25 = load ptr, ptr %24, align 8
  %26 = tail call ptr @ExecFindMatchingSubPlans(ptr noundef %25, i1 noundef zeroext false, ptr noundef null) #3
  store ptr %26, ptr %20, align 8
  br label %27

27:                                               ; preds = %23, %19
  %28 = phi ptr [ %26, %23 ], [ %21, %19 ]
  %29 = tail call i32 @bms_next_member(ptr noundef %28, i32 noundef -1) #3
  %30 = icmp sgt i32 %29, -1
  br i1 %30, label %.lr.ph, label %._crit_edge

.lr.ph:                                           ; preds = %27
  %31 = getelementptr inbounds nuw i8, ptr %0, i64 200
  %32 = getelementptr inbounds nuw i8, ptr %0, i64 224
  %33 = getelementptr inbounds nuw i8, ptr %0, i64 232
  br label %34

34:                                               ; preds = %.lr.ph, %58
  %35 = phi i32 [ %29, %.lr.ph ], [ %60, %58 ]
  %36 = load ptr, ptr %31, align 8
  %37 = zext nneg i32 %35 to i64
  %38 = getelementptr inbounds nuw ptr, ptr %36, i64 %37
  %39 = load ptr, ptr %38, align 8
  %40 = getelementptr inbounds nuw i8, ptr %39, i64 104
  %41 = load ptr, ptr %40, align 8
  %.not.i = icmp eq ptr %41, null
  br i1 %.not.i, label %ExecProcNode.exit, label %42

42:                                               ; preds = %34
  tail call void @ExecReScan(ptr noundef nonnull %39) #3
  br label %ExecProcNode.exit

ExecProcNode.exit:                                ; preds = %34, %42
  %43 = getelementptr inbounds nuw i8, ptr %39, i64 24
  %44 = load ptr, ptr %43, align 8
  %45 = tail call ptr %44(ptr noundef nonnull %39) #3
  %46 = load ptr, ptr %32, align 8
  %47 = getelementptr inbounds nuw ptr, ptr %46, i64 %37
  store ptr %45, ptr %47, align 8
  %48 = load ptr, ptr %32, align 8
  %49 = getelementptr inbounds nuw ptr, ptr %48, i64 %37
  %50 = load ptr, ptr %49, align 8
  %51 = icmp eq ptr %50, null
  br i1 %51, label %58, label %52

52:                                               ; preds = %ExecProcNode.exit
  %53 = getelementptr inbounds nuw i8, ptr %50, i64 4
  %54 = load i16, ptr %53, align 4
  %55 = and i16 %54, 2
  %.not44 = icmp eq i16 %55, 0
  br i1 %.not44, label %56, label %58

56:                                               ; preds = %52
  %57 = load ptr, ptr %33, align 8
  tail call void @binaryheap_add_unordered(ptr noundef %57, i64 noundef %37) #3
  br label %58

58:                                               ; preds = %56, %52, %ExecProcNode.exit
  %59 = load ptr, ptr %20, align 8
  %60 = tail call i32 @bms_next_member(ptr noundef %59, i32 noundef %35) #3
  %61 = icmp sgt i32 %60, -1
  br i1 %61, label %34, label %._crit_edge, !llvm.loop !10

._crit_edge:                                      ; preds = %58, %27
  %62 = getelementptr inbounds nuw i8, ptr %0, i64 232
  %63 = load ptr, ptr %62, align 8
  tail call void @binaryheap_build(ptr noundef %63) #3
  store i8 1, ptr %5, align 8
  br label %95

64:                                               ; preds = %4
  %65 = getelementptr inbounds nuw i8, ptr %0, i64 232
  %66 = load ptr, ptr %65, align 8
  %67 = tail call i64 @binaryheap_first(ptr noundef %66) #3
  %68 = getelementptr inbounds nuw i8, ptr %0, i64 200
  %69 = load ptr, ptr %68, align 8
  %sext = shl i64 %67, 32
  %70 = ashr exact i64 %sext, 32
  %71 = getelementptr inbounds ptr, ptr %69, i64 %70
  %72 = load ptr, ptr %71, align 8
  %73 = getelementptr inbounds nuw i8, ptr %72, i64 104
  %74 = load ptr, ptr %73, align 8
  %.not.i46 = icmp eq ptr %74, null
  br i1 %.not.i46, label %ExecProcNode.exit47, label %75

75:                                               ; preds = %64
  tail call void @ExecReScan(ptr noundef nonnull %72) #3
  br label %ExecProcNode.exit47

ExecProcNode.exit47:                              ; preds = %64, %75
  %76 = getelementptr inbounds nuw i8, ptr %72, i64 24
  %77 = load ptr, ptr %76, align 8
  %78 = tail call ptr %77(ptr noundef nonnull %72) #3
  %79 = getelementptr inbounds nuw i8, ptr %0, i64 224
  %80 = load ptr, ptr %79, align 8
  %81 = getelementptr inbounds ptr, ptr %80, i64 %70
  store ptr %78, ptr %81, align 8
  %82 = load ptr, ptr %79, align 8
  %83 = getelementptr inbounds ptr, ptr %82, i64 %70
  %84 = load ptr, ptr %83, align 8
  %85 = icmp eq ptr %84, null
  br i1 %85, label %92, label %86

86:                                               ; preds = %ExecProcNode.exit47
  %87 = getelementptr inbounds nuw i8, ptr %84, i64 4
  %88 = load i16, ptr %87, align 4
  %89 = and i16 %88, 2
  %.not45 = icmp eq i16 %89, 0
  br i1 %.not45, label %90, label %92

90:                                               ; preds = %86
  %91 = load ptr, ptr %65, align 8
  tail call void @binaryheap_replace_first(ptr noundef %91, i64 noundef %70) #3
  br label %95

92:                                               ; preds = %86, %ExecProcNode.exit47
  %93 = load ptr, ptr %65, align 8
  %94 = tail call i64 @binaryheap_remove_first(ptr noundef %93) #3
  br label %95

95:                                               ; preds = %90, %92, %._crit_edge
  %96 = getelementptr inbounds nuw i8, ptr %0, i64 232
  %97 = load ptr, ptr %96, align 8
  %98 = load i32, ptr %97, align 8
  %99 = icmp eq i32 %98, 0
  br i1 %99, label %100, label %107

100:                                              ; preds = %95
  %101 = getelementptr inbounds nuw i8, ptr %0, i64 120
  %102 = load ptr, ptr %101, align 8
  %103 = getelementptr inbounds nuw i8, ptr %102, i64 8
  %104 = load ptr, ptr %103, align 8
  %105 = getelementptr inbounds nuw i8, ptr %104, i64 24
  %106 = load ptr, ptr %105, align 8
  tail call void %106(ptr noundef %102) #3
  br label %114

107:                                              ; preds = %95
  %108 = tail call i64 @binaryheap_first(ptr noundef nonnull %97) #3
  %109 = getelementptr inbounds nuw i8, ptr %0, i64 224
  %110 = load ptr, ptr %109, align 8
  %sext48 = shl i64 %108, 32
  %111 = ashr exact i64 %sext48, 29
  %112 = getelementptr inbounds i8, ptr %110, i64 %111
  %113 = load ptr, ptr %112, align 8
  br label %114

114:                                              ; preds = %100, %107, %12
  %.040 = phi ptr [ %14, %12 ], [ %102, %100 ], [ %113, %107 ]
  ret ptr %.040
}